target datalayout = "e-m:e-p270:32:32-p271:32:32-p272:64:64-i64:64-i128:128-f80:128-n8:16:32:64-S128"
target triple = "x86_64-pc-linux-gnu"

%struct._session_keys_t = type { ptr, ptr, ptr, i32, ptr, ptr }
%struct._GByteArray = type { ptr, i32 }

@.str.311 = private unnamed_addr constant [30 x i8] c"Device address can't be empty\00", align 1
@.str.312 = private unnamed_addr constant [35 x i8] c"Device address must be hexadecimal\00", align 1
@.str.313 = private unnamed_addr constant [43 x i8] c"Device address must be 4 bytes hexadecimal\00", align 1
@.str.314 = private unnamed_addr constant [35 x i8] c"Network session key can't be empty\00", align 1
@.str.315 = private unnamed_addr constant [40 x i8] c"Network session key must be hexadecimal\00", align 1
@.str.316 = private unnamed_addr constant [49 x i8] c"Network session key must be 16 bytes hexadecimal\00", align 1
@.str.317 = private unnamed_addr constant [39 x i8] c"Application session key can't be empty\00", align 1
@.str.318 = private unnamed_addr constant [44 x i8] c"Application session key must be hexadecimal\00", align 1
@.str.319 = private unnamed_addr constant [53 x i8] c"Application session key must be 16 bytes hexadecimal\00", align 1

; Function Attrs: alwaysinline nounwind
define internal ptr @memcpy.inline(ptr noalias %0, ptr noalias %1, i64 %2) #8 {
  %4 = alloca ptr, align 8
  %5 = alloca ptr, align 8
  %6 = alloca i64, align 8
  store ptr %0, ptr %4, align 8
  store ptr %1, ptr %5, align 8
  store i64 %2, ptr %6, align 8
  %7 = load ptr, ptr %4, align 8
  %8 = load ptr, ptr %5, align 8
  %9 = load i64, ptr %6, align 8
  %10 = load ptr, ptr %4, align 8
  %11 = call i64 @llvm.objectsize.i64.p0(ptr %10, i1 false, i1 true, i1 true)
  %12 = call ptr @__memcpy_chk(ptr noundef %7, ptr noundef %8, i64 noundef %9, i64 noundef %11) #10
  ret ptr %12
}

; Function Attrs: nounwind null_pointer_is_valid sspstrong uwtable
define internal void @byte_array_reverse(ptr noundef %0) #4 {
  %2 = alloca ptr, align 8
  %3 = alloca i32, align 4
  %4 = alloca i8, align 1
  store ptr %0, ptr %2, align 8
  call void @llvm.lifetime.start.p0(i64 4, ptr %3) #10
  store i32 0, ptr %3, align 4
  br label %5

5:                                                ; preds = %51, %1
  %6 = load i32, ptr %3, align 4
  %7 = load ptr, ptr %2, align 8
  %8 = getelementptr inbounds nuw %struct._GByteArray, ptr %7, i32 0, i32 1
  %9 = load i32, ptr %8, align 8
  %10 = udiv i32 %9, 2
  %11 = icmp ult i32 %6, %10
  br i1 %11, label %13, label %12

12:                                               ; preds = %5
  call void @llvm.lifetime.end.p0(i64 4, ptr %3) #10
  br label %54

13:                                               ; preds = %5
  call void @llvm.lifetime.start.p0(i64 1, ptr %4) #10
  %14 = load ptr, ptr %2, align 8
  %15 = getelementptr inbounds nuw %struct._GByteArray, ptr %14, i32 0, i32 0
  %16 = load ptr, ptr %15, align 8
  %17 = load i32, ptr %3, align 4
  %18 = zext i32 %17 to i64
  %19 = getelementptr i8, ptr %16, i64 %18
  %20 = load i8, ptr %19, align 1
  store i8 %20, ptr %4, align 1
  %21 = load ptr, ptr %2, align 8
  %22 = getelementptr inbounds nuw %struct._GByteArray, ptr %21, i32 0, i32 0
  %23 = load ptr, ptr %22, align 8
  %24 = load ptr, ptr %2, align 8
  %25 = getelementptr inbounds nuw %struct._GByteArray, ptr %24, i32 0, i32 1
  %26 = load i32, ptr %25, align 8
  %27 = sub i32 %26, 1
  %28 = load i32, ptr %3, align 4
  %29 = sub i32 %27, %28
  %30 = zext i32 %29 to i64
  %31 = getelementptr i8, ptr %23, i64 %30
  %32 = load i8, ptr %31, align 1
  %33 = load ptr, ptr %2, align 8
  %34 = getelementptr inbounds nuw %struct._GByteArray, ptr %33, i32 0, i32 0
  %35 = load ptr, ptr %34, align 8
  %36 = load i32, ptr %3, align 4
  %37 = zext i32 %36 to i64
  %38 = getelementptr i8, ptr %35, i64 %37
  store i8 %32, ptr %38, align 1
  %39 = load i8, ptr %4, align 1
  %40 = load ptr, ptr %2, align 8
  %41 = getelementptr inbounds nuw %struct._GByteArray, ptr %40, i32 0, i32 0
  %42 = load ptr, ptr %41, align 8
  %43 = load ptr, ptr %2, align 8
  %44 = getelementptr inbounds nuw %struct._GByteArray, ptr %43, i32 0, i32 1
  %45 = load i32, ptr %44, align 8
  %46 = sub i32 %45, 1
  %47 = load i32, ptr %3, align 4
  %48 = sub i32 %46, %47
  %49 = zext i32 %48 to i64
  %50 = getelementptr i8, ptr %42, i64 %49
  store i8 %39, ptr %50, align 1
  call void @llvm.lifetime.end.p0(i64 1, ptr %4) #10
  br label %51

51:                                               ; preds = %13
  %52 = load i32, ptr %3, align 4
  %53 = add i32 %52, 1
  store i32 %53, ptr %3, align 4
  br label %5, !llvm.loop !13

54:                                               ; preds = %12
  ret void
}

; Function Attrs: null_pointer_is_valid sspstrong uwtable
define internal zeroext i1 @session_keys_update_cb(ptr noundef %0, ptr noundef %1) #0 {
  %3 = alloca i1, align 1
  %4 = alloca ptr, align 8
  %5 = alloca ptr, align 8
  %6 = alloca ptr, align 8
  %7 = alloca i32, align 4
  %8 = alloca ptr, align 8
  store ptr %0, ptr %4, align 8
  store ptr %1, ptr %5, align 8
  call void @llvm.lifetime.start.p0(i64 8, ptr %6) #10
  %9 = load ptr, ptr %4, align 8
  store ptr %9, ptr %6, align 8
  %10 = load ptr, ptr %6, align 8
  %11 = getelementptr inbounds nuw %struct._session_keys_t, ptr %10, i32 0, i32 0
  %12 = load ptr, ptr %11, align 8
  %13 = icmp eq ptr %12, null
  br i1 %13, label %14, label %17

14:                                               ; preds = %2
  %15 = call noalias ptr @g_strdup(ptr noundef @.str.311)
  %16 = load ptr, ptr %5, align 8
  store ptr %15, ptr %16, align 8
  store i1 false, ptr %3, align 1
  store i32 1, ptr %7, align 4
  br label %127

17:                                               ; preds = %2
  call void @llvm.lifetime.start.p0(i64 8, ptr %8) #10
  %18 = call ptr @g_byte_array_new()
  store ptr %18, ptr %8, align 8
  %19 = load ptr, ptr %6, align 8
  %20 = getelementptr inbounds nuw %struct._session_keys_t, ptr %19, i32 0, i32 0
  %21 = load ptr, ptr %20, align 8
  %22 = load ptr, ptr %8, align 8
  %23 = call zeroext i1 @hex_str_to_bytes(ptr noundef %21, ptr noundef %22, i1 noundef zeroext false)
  br i1 %23, label %29, label %24

24:                                               ; preds = %17
  %25 = load ptr, ptr %8, align 8
  %26 = call ptr @g_byte_array_free(ptr noundef %25, i32 noundef 1)
  %27 = call noalias ptr @g_strdup(ptr noundef @.str.312)
  %28 = load ptr, ptr %5, align 8
  store ptr %27, ptr %28, align 8
  store i1 false, ptr %3, align 1
  store i32 1, ptr %7, align 4
  br label %126

29:                                               ; preds = %17
  %30 = load ptr, ptr %8, align 8
  %31 = getelementptr inbounds nuw %struct._GByteArray, ptr %30, i32 0, i32 1
  %32 = load i32, ptr %31, align 8
  %33 = icmp ne i32 %32, 4
  br i1 %33, label %34, label %39

34:                                               ; preds = %29
  %35 = load ptr, ptr %8, align 8
  %36 = call ptr @g_byte_array_free(ptr noundef %35, i32 noundef 1)
  %37 = call noalias ptr @g_strdup(ptr noundef @.str.313)
  %38 = load ptr, ptr %5, align 8
  store ptr %37, ptr %38, align 8
  store i1 false, ptr %3, align 1
  store i32 1, ptr %7, align 4
  br label %126

39:                                               ; preds = %29
  %40 = load ptr, ptr %8, align 8
  call void @byte_array_reverse(ptr noundef %40)
  %41 = load ptr, ptr %6, align 8
  %42 = getelementptr inbounds nuw %struct._session_keys_t, ptr %41, i32 0, i32 3
  %43 = load ptr, ptr %8, align 8
  %44 = getelementptr inbounds nuw %struct._GByteArray, ptr %43, i32 0, i32 0
  %45 = load ptr, ptr %44, align 8
  %46 = call ptr @memcpy.inline(ptr noundef %42, ptr noundef %45, i64 noundef 4) #10
  %47 = load ptr, ptr %8, align 8
  %48 = call ptr @g_byte_array_free(ptr noundef %47, i32 noundef 1)
  %49 = load ptr, ptr %6, align 8
  %50 = getelementptr inbounds nuw %struct._session_keys_t, ptr %49, i32 0, i32 1
  %51 = load ptr, ptr %50, align 8
  %52 = icmp eq ptr %51, null
  br i1 %52, label %53, label %56

53:                                               ; preds = %39
  %54 = call noalias ptr @g_strdup(ptr noundef @.str.314)
  %55 = load ptr, ptr %5, align 8
  store ptr %54, ptr %55, align 8
  store i1 false, ptr %3, align 1
  store i32 1, ptr %7, align 4
  br label %126

56:                                               ; preds = %39
  %57 = load ptr, ptr %6, align 8
  %58 = getelementptr inbounds nuw %struct._session_keys_t, ptr %57, i32 0, i32 4
  %59 = load ptr, ptr %58, align 8
  %60 = icmp ne ptr %59, null
  br i1 %60, label %65, label %61

61:                                               ; preds = %56
  %62 = call ptr @g_byte_array_new()
  %63 = load ptr, ptr %6, align 8
  %64 = getelementptr inbounds nuw %struct._session_keys_t, ptr %63, i32 0, i32 4
  store ptr %62, ptr %64, align 8
  br label %65

65:                                               ; preds = %61, %56
  %66 = load ptr, ptr %6, align 8
  %67 = getelementptr inbounds nuw %struct._session_keys_t, ptr %66, i32 0, i32 1
  %68 = load ptr, ptr %67, align 8
  %69 = load ptr, ptr %6, align 8
  %70 = getelementptr inbounds nuw %struct._session_keys_t, ptr %69, i32 0, i32 4
  %71 = load ptr, ptr %70, align 8
  %72 = call zeroext i1 @hex_str_to_bytes(ptr noundef %68, ptr noundef %71, i1 noundef zeroext false)
  br i1 %72, label %76, label %73

73:                                               ; preds = %65
  %74 = call noalias ptr @g_strdup(ptr noundef @.str.315)
  %75 = load ptr, ptr %5, align 8
  store ptr %74, ptr %75, align 8
  store i1 false, ptr %3, align 1
  store i32 1, ptr %7, align 4
  br label %126

76:                                               ; preds = %65
  %77 = load ptr, ptr %6, align 8
  %78 = getelementptr inbounds nuw %struct._session_keys_t, ptr %77, i32 0, i32 4
  %79 = load ptr, ptr %78, align 8
  %80 = getelementptr inbounds nuw %struct._GByteArray, ptr %79, i32 0, i32 1
  %81 = load i32, ptr %80, align 8
  %82 = icmp ne i32 %81, 16
  br i1 %82, label %83, label %86

83:                                               ; preds = %76
  %84 = call noalias ptr @g_strdup(ptr noundef @.str.316)
  %85 = load ptr, ptr %5, align 8
  store ptr %84, ptr %85, align 8
  store i1 false, ptr %3, align 1
  store i32 1, ptr %7, align 4
  br label %126

86:                                               ; preds = %76
  %87 = load ptr, ptr %6, align 8
  %88 = getelementptr inbounds nuw %struct._session_keys_t, ptr %87, i32 0, i32 2
  %89 = load ptr, ptr %88, align 8
  %90 = icmp eq ptr %89, null
  br i1 %90, label %91, label %94

91:                                               ; preds = %86
  %92 = call noalias ptr @g_strdup(ptr noundef @.str.317)
  %93 = load ptr, ptr %5, align 8
  store ptr %92, ptr %93, align 8
  store i1 false, ptr %3, align 1
  store i32 1, ptr %7, align 4
  br label %126

94:                                               ; preds = %86
  %95 = load ptr, ptr %6, align 8
  %96 = getelementptr inbounds nuw %struct._session_keys_t, ptr %95, i32 0, i32 5
  %97 = load ptr, ptr %96, align 8
  %98 = icmp ne ptr %97, null
  br i1 %98, label %103, label %99

99:                                               ; preds = %94
  %100 = call ptr @g_byte_array_new()
  %101 = load ptr, ptr %6, align 8
  %102 = getelementptr inbounds nuw %struct._session_keys_t, ptr %101, i32 0, i32 5
  store ptr %100, ptr %102, align 8
  br label %103

103:                                              ; preds = %99, %94
  %104 = load ptr, ptr %6, align 8
  %105 = getelementptr inbounds nuw %struct._session_keys_t, ptr %104, i32 0, i32 2
  %106 = load ptr, ptr %105, align 8
  %107 = load ptr, ptr %6, align 8
  %108 = getelementptr inbounds nuw %struct._session_keys_t, ptr %107, i32 0, i32 5
  %109 = load ptr, ptr %108, align 8
  %110 = call zeroext i1 @hex_str_to_bytes(ptr noundef %106, ptr noundef %109, i1 noundef zeroext false)
  br i1 %110, label %114, label %111

111:                                              ; preds = %103
  %112 = call noalias ptr @g_strdup(ptr noundef @.str.318)
  %113 = load ptr, ptr %5, align 8
  store ptr %112, ptr %113, align 8
  store i1 false, ptr %3, align 1
  store i32 1, ptr %7, align 4
  br label %126

114:                                              ; preds = %103
  %115 = load ptr, ptr %6, align 8
  %116 = getelementptr inbounds nuw %struct._session_keys_t, ptr %115, i32 0, i32 5
  %117 = load ptr, ptr %116, align 8
  %118 = getelementptr inbounds nuw %struct._GByteArray, ptr %117, i32 0, i32 1
  %119 = load i32, ptr %118, align 8
  %120 = icmp ne i32 %119, 16
  br i1 %120, label %121, label %124

121:                                              ; preds = %114
  %122 = call noalias ptr @g_strdup(ptr noundef @.str.319)
  %123 = load ptr, ptr %5, align 8
  store ptr %122, ptr %123, align 8
  store i1 false, ptr %3, align 1
  store i32 1, ptr %7, align 4
  br label %126

124:                                              ; preds = %114
  %125 = load ptr, ptr %5, align 8
  store ptr null, ptr %125, align 8
  store i1 true, ptr %3, align 1
  store i32 1, ptr %7, align 4
  br label %126

126:                                              ; preds = %124, %121, %111, %91, %83, %73, %53, %34, %24
  call void @llvm.lifetime.end.p0(i64 8, ptr %8) #10
  br label %127

127:                                              ; preds = %126, %14
  call void @llvm.lifetime.end.p0(i64 8, ptr %6) #10
  %128 = load i1, ptr %3, align 1
  ret i1 %128
}