; Function Attrs: null_pointer_is_valid sspstrong uwtable
define internal noundef zeroext i1 @session_keys_update_cb(ptr noundef %0, ptr noundef writeonly captures(none) %1) #0 {
  %3 = load ptr, ptr %0, align 8
  %4 = icmp eq ptr %3, null
  br i1 %4, label %.sink.split, label %5

5:                                                ; preds = %2
  %6 = tail call ptr @g_byte_array_new()
  %7 = load ptr, ptr %0, align 8
  %8 = tail call zeroext i1 @hex_str_to_bytes(ptr noundef %7, ptr noundef %6, i1 noundef zeroext false)
  br i1 %8, label %9, label %.sink.split.sink.split

9:                                                ; preds = %5
  %10 = getelementptr inbounds nuw i8, ptr %6, i64 8
  %11 = load i32, ptr %10, align 8
  %.not = icmp eq i32 %11, 4
  br i1 %.not, label %.lr.ph.i, label %.sink.split.sink.split

.lr.ph.i:                                         ; preds = %9, %.lr.ph.i
  %indvars.iv.i = phi i64 [ %indvars.iv.next.i, %.lr.ph.i ], [ 0, %9 ]
  %12 = phi i32 [ %27, %.lr.ph.i ], [ 4, %9 ]
  %13 = load ptr, ptr %6, align 8
  %14 = getelementptr i8, ptr %13, i64 %indvars.iv.i
  %15 = load i8, ptr %14, align 1
  %16 = trunc nuw nsw i64 %indvars.iv.i to i32
  %17 = xor i32 %16, -1
  %18 = add i32 %12, %17
  %19 = zext i32 %18 to i64
  %20 = getelementptr i8, ptr %13, i64 %19
  %21 = load i8, ptr %20, align 1
  store i8 %21, ptr %14, align 1
  %22 = load ptr, ptr %6, align 8
  %23 = load i32, ptr %10, align 8
  %24 = add i32 %23, %17
  %25 = zext i32 %24 to i64
  %26 = getelementptr i8, ptr %22, i64 %25
  store i8 %15, ptr %26, align 1
  %indvars.iv.next.i = add nuw nsw i64 %indvars.iv.i, 1
  %27 = load i32, ptr %10, align 8
  %28 = lshr i32 %27, 1
  %29 = zext nneg i32 %28 to i64
  %30 = icmp samesign ult i64 %indvars.iv.next.i, %29
  br i1 %30, label %.lr.ph.i, label %byte_array_reverse.exit, !llvm.loop !13

byte_array_reverse.exit:                          ; preds = %.lr.ph.i
  %31 = getelementptr inbounds nuw i8, ptr %0, i64 24
  %32 = load ptr, ptr %6, align 8
  %33 = load i32, ptr %32, align 1
  store i32 %33, ptr %31, align 1
  %34 = tail call ptr @g_byte_array_free(ptr noundef %6, i32 noundef 1)
  %35 = getelementptr inbounds nuw i8, ptr %0, i64 8
  %36 = load ptr, ptr %35, align 8
  %37 = icmp eq ptr %36, null
  br i1 %37, label %.sink.split, label %38

38:                                               ; preds = %byte_array_reverse.exit
  %39 = getelementptr inbounds nuw i8, ptr %0, i64 32
  %40 = load ptr, ptr %39, align 8
  %.not34 = icmp eq ptr %40, null
  br i1 %.not34, label %41, label %43

41:                                               ; preds = %38
  %42 = tail call ptr @g_byte_array_new()
  store ptr %42, ptr %39, align 8
  %.pre = load ptr, ptr %35, align 8
  br label %43

43:                                               ; preds = %41, %38
  %44 = phi ptr [ %42, %41 ], [ %40, %38 ]
  %45 = phi ptr [ %.pre, %41 ], [ %36, %38 ]
  %46 = tail call zeroext i1 @hex_str_to_bytes(ptr noundef %45, ptr noundef %44, i1 noundef zeroext false)
  br i1 %46, label %47, label %.sink.split

47:                                               ; preds = %43
  %48 = load ptr, ptr %39, align 8
  %49 = getelementptr inbounds nuw i8, ptr %48, i64 8
  %50 = load i32, ptr %49, align 8
  %.not35 = icmp eq i32 %50, 16
  br i1 %.not35, label %51, label %.sink.split

51:                                               ; preds = %47
  %52 = getelementptr inbounds nuw i8, ptr %0, i64 16
  %53 = load ptr, ptr %52, align 8
  %54 = icmp eq ptr %53, null
  br i1 %54, label %.sink.split, label %55

55:                                               ; preds = %51
  %56 = getelementptr inbounds nuw i8, ptr %0, i64 40
  %57 = load ptr, ptr %56, align 8
  %.not36 = icmp eq ptr %57, null
  br i1 %.not36, label %58, label %60

58:                                               ; preds = %55
  %59 = tail call ptr @g_byte_array_new()
  store ptr %59, ptr %56, align 8
  %.pre38 = load ptr, ptr %52, align 8
  br label %60

60:                                               ; preds = %58, %55
  %61 = phi ptr [ %59, %58 ], [ %57, %55 ]
  %62 = phi ptr [ %.pre38, %58 ], [ %53, %55 ]
  %63 = tail call zeroext i1 @hex_str_to_bytes(ptr noundef %62, ptr noundef %61, i1 noundef zeroext false)
  br i1 %63, label %64, label %.sink.split

64:                                               ; preds = %60
  %65 = load ptr, ptr %56, align 8
  %66 = getelementptr inbounds nuw i8, ptr %65, i64 8
  %67 = load i32, ptr %66, align 8
  %.not37 = icmp eq i32 %67, 16
  br i1 %.not37, label %70, label %.sink.split

.sink.split.sink.split:                           ; preds = %9, %5
  %.str.312.sink.ph = phi ptr [ @.str.312, %5 ], [ @.str.313, %9 ]
  %68 = tail call ptr @g_byte_array_free(ptr noundef %6, i32 noundef 1)
  br label %.sink.split

.sink.split:                                      ; preds = %.sink.split.sink.split, %64, %60, %51, %47, %43, %byte_array_reverse.exit, %2
  %.str.312.sink = phi ptr [ @.str.311, %2 ], [ @.str.314, %byte_array_reverse.exit ], [ @.str.315, %43 ], [ @.str.316, %47 ], [ @.str.317, %51 ], [ @.str.318, %60 ], [ @.str.319, %64 ], [ %.str.312.sink.ph, %.sink.split.sink.split ]
  %69 = tail call noalias ptr @g_strdup(ptr noundef nonnull %.str.312.sink)
  br label %70

70:                                               ; preds = %.sink.split, %64
  %.sink = phi ptr [ null, %64 ], [ %69, %.sink.split ]
  %.0 = phi i1 [ true, %64 ], [ false, %.sink.split ]
  store ptr %.sink, ptr %1, align 8
  ret i1 %.0
}